; Function Attrs: mustprogress uwtable
define noundef nonnull align 8 dereferenceable(8) ptr @_ZN14arrow_vendored4date13get_tzdb_listEv() local_unnamed_addr #7 personality ptr @__gxx_personality_v0 {
entry:
  %0 = load atomic i8, ptr @_ZGVZN14arrow_vendored4date13get_tzdb_listEvE5tz_db acquire, align 8
  %guard.uninitialized = icmp eq i8 %0, 0
  br i1 %guard.uninitialized, label %init.check, label %init.end, !prof !6

init.check:                                       ; preds = %entry
  %1 = tail call i32 @__cxa_guard_acquire(ptr nonnull @_ZGVZN14arrow_vendored4date13get_tzdb_listEvE5tz_db) #24
  %tobool.not = icmp eq i32 %1, 0
  br i1 %tobool.not, label %init.end, label %init

init:                                             ; preds = %init.check
  invoke fastcc void @_ZN14arrow_vendored4dateL11create_tzdbEv()
          to label %invoke.cont unwind label %lpad

invoke.cont:                                      ; preds = %init
  %2 = tail call i32 @__cxa_atexit(ptr nonnull @_ZN14arrow_vendored4date9tzdb_listD1Ev, ptr nonnull @_ZZN14arrow_vendored4date13get_tzdb_listEvE5tz_db, ptr nonnull @__dso_handle) #24
  tail call void @__cxa_guard_release(ptr nonnull @_ZGVZN14arrow_vendored4date13get_tzdb_listEvE5tz_db) #24
  br label %init.end

init.end:                                         ; preds = %invoke.cont, %init.check, %entry
  ret ptr @_ZZN14arrow_vendored4date13get_tzdb_listEvE5tz_db

lpad:                                             ; preds = %init
  %3 = landingpad { ptr, i32 }
          cleanup
  tail call void @__cxa_guard_abort(ptr nonnull @_ZGVZN14arrow_vendored4date13get_tzdb_listEvE5tz_db) #24
  resume { ptr, i32 } %3
}